target datalayout = "e-m:e-p270:32:32-p271:32:32-p272:64:64-i64:64-i128:128-f80:128-n8:16:32:64-S128"
target triple = "x86_64-pc-linux-gnu"

%"class.OpenColorIO_v2_5dev::IndexMapping" = type { ptr, i64, [3 x %"class.std::vector"] }
%"class.std::vector" = type { %"struct.std::_Vector_base" }
%"struct.std::_Vector_base" = type { %"struct.std::_Vector_base<std::pair<float, float>, std::allocator<std::pair<float, float>>>::_Vector_impl" }
%"struct.std::_Vector_base<std::pair<float, float>, std::allocator<std::pair<float, float>>>::_Vector_impl" = type { %"struct.std::_Vector_base<std::pair<float, float>, std::allocator<std::pair<float, float>>>::_Vector_impl_data" }
%"struct.std::_Vector_base<std::pair<float, float>, std::allocator<std::pair<float, float>>>::_Vector_impl_data" = type { ptr, ptr, ptr }
%"struct.std::pair" = type { float, float }

; Function Attrs: mustprogress nounwind uwtable
define linkonce_odr hidden noundef nonnull align 4 dereferenceable(8) ptr @_ZNSt6vectorISt4pairIffESaIS1_EEixEm(ptr noundef nonnull align 8 dereferenceable(24) %0, i64 noundef %1) #1 comdat align 2 {
  %3 = alloca ptr, align 8
  %4 = alloca i64, align 8
  store ptr %0, ptr %3, align 8, !tbaa !14
  store i64 %1, ptr %4, align 8, !tbaa !8
  %5 = load ptr, ptr %3, align 8
  %6 = getelementptr inbounds nuw %"struct.std::_Vector_base", ptr %5, i32 0, i32 0
  %7 = getelementptr inbounds nuw %"struct.std::_Vector_base<std::pair<float, float>, std::allocator<std::pair<float, float>>>::_Vector_impl_data", ptr %6, i32 0, i32 0
  %8 = load ptr, ptr %7, align 8, !tbaa !16
  %9 = load i64, ptr %4, align 8, !tbaa !8
  %10 = getelementptr inbounds nuw %"struct.std::pair", ptr %8, i64 %9
  ret ptr %10
}

; Function Attrs: mustprogress uwtable
define hidden void @_ZN19OpenColorIO_v2_5dev12IndexMapping7setPairEmff(ptr noundef nonnull align 8 dereferenceable(88) %0, i64 noundef %1, float noundef %2, float noundef %3) #0 align 2 {
  %5 = alloca ptr, align 8
  %6 = alloca i64, align 8
  %7 = alloca float, align 4
  %8 = alloca float, align 4
  store ptr %0, ptr %5, align 8, !tbaa !3
  store i64 %1, ptr %6, align 8, !tbaa !8
  store float %2, ptr %7, align 4, !tbaa !33
  store float %3, ptr %8, align 4, !tbaa !33
  %9 = load ptr, ptr %5, align 8
  %10 = load i64, ptr %6, align 8, !tbaa !8
  call void @_ZNK19OpenColorIO_v2_5dev12IndexMapping13validateIndexEm(ptr noundef nonnull align 8 dereferenceable(88) %9, i64 noundef %10)
  %11 = load float, ptr %7, align 4, !tbaa !33
  %12 = getelementptr inbounds nuw %"class.OpenColorIO_v2_5dev::IndexMapping", ptr %9, i32 0, i32 2
  %13 = getelementptr inbounds [3 x %"class.std::vector"], ptr %12, i64 0, i64 0
  %14 = load i64, ptr %6, align 8, !tbaa !8
  %15 = call noundef nonnull align 4 dereferenceable(8) ptr @_ZNSt6vectorISt4pairIffESaIS1_EEixEm(ptr noundef nonnull align 8 dereferenceable(24) %13, i64 noundef %14) #14
  %16 = getelementptr inbounds nuw %"struct.std::pair", ptr %15, i32 0, i32 0
  store float %11, ptr %16, align 4, !tbaa !30
  %17 = load float, ptr %8, align 4, !tbaa !33
  %18 = getelementptr inbounds nuw %"class.OpenColorIO_v2_5dev::IndexMapping", ptr %9, i32 0, i32 2
  %19 = getelementptr inbounds [3 x %"class.std::vector"], ptr %18, i64 0, i64 0
  %20 = load i64, ptr %6, align 8, !tbaa !8
  %21 = call noundef nonnull align 4 dereferenceable(8) ptr @_ZNSt6vectorISt4pairIffESaIS1_EEixEm(ptr noundef nonnull align 8 dereferenceable(24) %19, i64 noundef %20) #14
  %22 = getelementptr inbounds nuw %"struct.std::pair", ptr %21, i32 0, i32 1
  store float %17, ptr %22, align 4, !tbaa !34
  ret void
}