; Function Attrs: mustprogress uwtable
define hidden void @_ZN19OpenColorIO_v2_5dev12IndexMapping7setPairEmff(ptr noundef nonnull readonly align 8 captures(none) dereferenceable(88) %0, i64 noundef %1, float noundef %2, float noundef %3) local_unnamed_addr #0 align 2 {
  tail call void @_ZNK19OpenColorIO_v2_5dev12IndexMapping13validateIndexEm(ptr noundef nonnull align 8 dereferenceable(88) %0, i64 noundef %1)
  %5 = getelementptr inbounds nuw i8, ptr %0, i64 16
  %6 = load ptr, ptr %5, align 8, !tbaa !10
  %7 = getelementptr inbounds nuw %"struct.std::pair", ptr %6, i64 %1
  store float %2, ptr %7, align 4, !tbaa !31
  %8 = getelementptr inbounds nuw i8, ptr %7, i64 4
  store float %3, ptr %8, align 4, !tbaa !33
  ret void
}